; Function Attrs: mustprogress uwtable
define hidden void @_ZN3smt15theory_datatype18oc_mark_cycle_freeEPNS_5enodeE(ptr noundef nonnull align 8 dereferenceable(728) %this, ptr nocapture noundef readonly %n) local_unnamed_addr #3 align 2 {
entry:
  %m_root.i = getelementptr inbounds i8, ptr %n, i64 8
  %0 = load ptr, ptr %m_root.i, align 8
  %m_mark2.i = getelementptr inbounds i8, ptr %0, i64 44
  %bf.load.i = load i16, ptr %m_mark2.i, align 4
  %bf.set.i = or i16 %bf.load.i, 2
  store i16 %bf.set.i, ptr %m_mark2.i, align 4
  %m_to_unmark2 = getelementptr inbounds i8, ptr %this, i64 656
  %1 = load ptr, ptr %m_to_unmark2, align 8
  %cmp.i = icmp eq ptr %1, null
  br i1 %cmp.i, label %if.then.i, label %lor.lhs.false.i

lor.lhs.false.i:                                  ; preds = %entry
  %arrayidx.i = getelementptr inbounds i8, ptr %1, i64 -4
  %2 = load i32, ptr %arrayidx.i, align 4
  %arrayidx4.i = getelementptr inbounds i8, ptr %1, i64 -8
  %3 = load i32, ptr %arrayidx4.i, align 4
  %cmp5.i = icmp eq i32 %2, %3
  br i1 %cmp5.i, label %if.then.i, label %_ZN6vectorIPN3smt5enodeELb0EjE9push_backERKS2_.exit

if.then.i:                                        ; preds = %lor.lhs.false.i, %entry
  tail call void @_ZN6vectorIPN3smt5enodeELb0EjE13expand_vectorEv(ptr noundef nonnull align 8 dereferenceable(8) %m_to_unmark2)
  %.pre.i = load ptr, ptr %m_to_unmark2, align 8
  %arrayidx8.phi.trans.insert.i = getelementptr inbounds i8, ptr %.pre.i, i64 -4
  %.pre1.i = load i32, ptr %arrayidx8.phi.trans.insert.i, align 4
  br label %_ZN6vectorIPN3smt5enodeELb0EjE9push_backERKS2_.exit

_ZN6vectorIPN3smt5enodeELb0EjE9push_backERKS2_.exit: ; preds = %lor.lhs.false.i, %if.then.i
  %4 = phi i32 [ %.pre1.i, %if.then.i ], [ %2, %lor.lhs.false.i ]
  %5 = phi ptr [ %.pre.i, %if.then.i ], [ %1, %lor.lhs.false.i ]
  %idx.ext.i = zext i32 %4 to i64
  %add.ptr.i = getelementptr inbounds ptr, ptr %5, i64 %idx.ext.i
  store ptr %0, ptr %add.ptr.i, align 8
  %6 = load ptr, ptr %m_to_unmark2, align 8
  %arrayidx10.i = getelementptr inbounds i8, ptr %6, i64 -4
  %7 = load i32, ptr %arrayidx10.i, align 4
  %inc.i = add i32 %7, 1
  store i32 %inc.i, ptr %arrayidx10.i, align 4
  ret void
}